ccopy_reg
_reconstructor
p0
(csklearn.pipeline
Pipeline
p1
c__builtin__
object
p2
Ntp3
Rp4
(dp5
S'_sklearn_version'
p6
S'0.18.1'
p7
sS'steps'
p8
(lp9
(S'scaler'
p10
g0
(csklearn.preprocessing.data
StandardScaler
p11
g2
Ntp12
Rp13
(dp14
S'copy'
p15
I01
sg6
g7
sS'with_mean'
p16
I01
sS'with_std'
p17
I01
sbtp18
a(S'svc'
p19
g0
(csklearn.svm.classes
SVC
p20
g2
Ntp21
Rp22
(dp23
S'_impl'
p24
S'c_svc'
p25
sS'kernel'
p26
S'rbf'
p27
sS'C'
p28
cnumpy.core.multiarray
scalar
p29
(cnumpy
dtype
p30
(S'f8'
p31
I0
I1
tp32
Rp33
(I3
S'<'
p34
NNNI-1
I-1
I0
tp35
bS'\x00\x00\x00\x00\x00\x00 @'
p36
tp37
Rp38
sS'verbose'
p39
I00
sS'probability'
p40
I00
sS'coef0'
p41
F0.0
sS'epsilon'
p42
F0.0
sS'max_iter'
p43
I-1
sS'decision_function_shape'
p44
NsS'random_state'
p45
Nsg6
g7
sS'tol'
p46
F0.001
sS'cache_size'
p47
I200
sS'class_weight'
p48
NsS'shrinking'
p49
I01
sS'nu'
p50
F0.0
sS'gamma'
p51
g29
(g33
S'\x00\x00\x00\x00\x00\x00\xe0?'
p52
tp53
Rp54
sS'degree'
p55
I3
sbtp56
asb.