(lp0
S'poi'
p1
aS'salary'
p2
aS'bonus'
p3
aS'expenses'
p4
aS'director_fees'
p5
aS'sent_vs_received'
p6
aS'total_emails'
p7
aS'emails_with_poi'
p8
aS'log_bonus'
p9
aS'log_deferred_income'
p10
aS'log_long_term_incentive'
p11
aS'log_other'
p12
aS'log_restricted_stock_deferred'
p13
aS'log_total_stock_value'
p14
a.